; Function Attrs: nounwind uwtable
define ptr @l_Lean_PersistentHashMap_foldlMAux_traverse___at_Lean_PersistentHashMap_toList___spec__4___rarg(ptr noundef %0, ptr noundef readonly captures(none) %1, ptr noundef readonly captures(none) %2, ptr readnone captures(none) %3, ptr noundef %4, ptr noundef %5) local_unnamed_addr #2 {
  %7 = getelementptr i8, ptr %1, i64 8
  %8 = getelementptr inbounds nuw i8, ptr %1, i64 24
  %9 = getelementptr inbounds nuw i8, ptr %2, i64 24
  %10 = ptrtoint ptr %0 to i64
  %11 = and i64 %10, 1
  %.not56 = icmp eq i64 %11, 0
  br label %lean_dec.exit28

lean_dec.exit28:                                  ; preds = %lean_dec.exit28.backedge, %6
  %.025 = phi ptr [ %5, %6 ], [ %59, %lean_dec.exit28.backedge ]
  %.023 = phi ptr [ %4, %6 ], [ %.023.be, %lean_dec.exit28.backedge ]
  %.val = load i64, ptr %7, align 8, !tbaa !12
  %12 = shl i64 %.val, 1
  %13 = or disjoint i64 %12, 1
  %14 = inttoptr i64 %13 to ptr
  %15 = ptrtoint ptr %.023 to i64
  %16 = and i64 %15, 1
  %.not = icmp eq i64 %16, 0
  br i1 %.not, label %lean_dec.exit30.thread, label %lean_dec.exit30, !prof !16

lean_dec.exit30:                                  ; preds = %lean_dec.exit28
  %.not55 = icmp ult ptr %.023, %14
  br i1 %.not55, label %31, label %lean_dec.exit29

lean_dec.exit30.thread:                           ; preds = %lean_dec.exit28
  %17 = tail call zeroext i1 @lean_nat_big_lt(ptr noundef %.023, ptr noundef nonnull %14) #7
  br i1 %17, label %31, label %.thread

.thread:                                          ; preds = %lean_dec.exit30.thread
  %18 = load i32, ptr %.023, align 4, !tbaa !4
  %19 = icmp sgt i32 %18, 1
  br i1 %19, label %20, label %22, !prof !11

20:                                               ; preds = %.thread
  %21 = add nsw i32 %18, -1
  store i32 %21, ptr %.023, align 4, !tbaa !4
  br label %lean_dec.exit29

22:                                               ; preds = %.thread
  %.not.i31 = icmp eq i32 %18, 0
  br i1 %.not.i31, label %lean_dec.exit29, label %23

23:                                               ; preds = %22
  tail call void @lean_dec_ref_cold(ptr noundef nonnull %.023) #7
  br label %lean_dec.exit29

lean_dec.exit29:                                  ; preds = %lean_dec.exit30, %23, %22, %20
  br i1 %.not56, label %24, label %77

24:                                               ; preds = %lean_dec.exit29
  %25 = load i32, ptr %0, align 4, !tbaa !4
  %26 = icmp sgt i32 %25, 1
  br i1 %26, label %27, label %29, !prof !11

27:                                               ; preds = %24
  %28 = add nsw i32 %25, -1
  store i32 %28, ptr %0, align 4, !tbaa !4
  br label %77

29:                                               ; preds = %24
  %.not.i33 = icmp eq i32 %25, 0
  br i1 %.not.i33, label %77, label %30

30:                                               ; preds = %29
  tail call void @lean_dec_ref_cold(ptr noundef nonnull %0) #7
  br label %77

31:                                               ; preds = %lean_dec.exit30.thread, %lean_dec.exit30
  %32 = lshr i64 %15, 1
  %33 = getelementptr inbounds nuw [0 x ptr], ptr %8, i64 0, i64 %32
  %34 = load ptr, ptr %33, align 8, !tbaa !9
  %35 = ptrtoint ptr %34 to i64
  %36 = and i64 %35, 1
  %.not.i.i = icmp eq i64 %36, 0
  br i1 %.not.i.i, label %37, label %lean_array_fget.exit

37:                                               ; preds = %31
  %.val.i.i.i = load i32, ptr %34, align 4, !tbaa !4
  %38 = icmp sgt i32 %.val.i.i.i, 0
  br i1 %38, label %39, label %41, !prof !11

39:                                               ; preds = %37
  %40 = add nuw i32 %.val.i.i.i, 1
  store i32 %40, ptr %34, align 4, !tbaa !4
  br label %lean_array_fget.exit

41:                                               ; preds = %37
  %.not.i.i.i = icmp eq i32 %.val.i.i.i, 0
  br i1 %.not.i.i.i, label %lean_array_fget.exit, label %42

42:                                               ; preds = %41
  tail call void @lean_inc_ref_cold(ptr noundef nonnull %34) #7
  br label %lean_array_fget.exit

lean_array_fget.exit:                             ; preds = %31, %39, %41, %42
  %43 = getelementptr inbounds nuw [0 x ptr], ptr %9, i64 0, i64 %32
  %44 = load ptr, ptr %43, align 8, !tbaa !9
  %45 = ptrtoint ptr %44 to i64
  %46 = and i64 %45, 1
  %.not.i.i39 = icmp eq i64 %46, 0
  br i1 %.not.i.i39, label %47, label %lean_array_fget.exit42

47:                                               ; preds = %lean_array_fget.exit
  %.val.i.i.i40 = load i32, ptr %44, align 4, !tbaa !4
  %48 = icmp sgt i32 %.val.i.i.i40, 0
  br i1 %48, label %49, label %51, !prof !11

49:                                               ; preds = %47
  %50 = add nuw i32 %.val.i.i.i40, 1
  store i32 %50, ptr %44, align 4, !tbaa !4
  br label %lean_array_fget.exit42

51:                                               ; preds = %47
  %.not.i.i.i41 = icmp eq i32 %.val.i.i.i40, 0
  br i1 %.not.i.i.i41, label %lean_array_fget.exit42, label %52

52:                                               ; preds = %51
  tail call void @lean_inc_ref_cold(ptr noundef nonnull %44) #7
  br label %lean_array_fget.exit42

lean_array_fget.exit42:                           ; preds = %lean_array_fget.exit, %49, %51, %52
  br i1 %.not56, label %53, label %lean_inc.exit

53:                                               ; preds = %lean_array_fget.exit42
  %.val.i = load i32, ptr %0, align 4, !tbaa !4
  %54 = icmp sgt i32 %.val.i, 0
  br i1 %54, label %55, label %57, !prof !11

55:                                               ; preds = %53
  %56 = add nuw i32 %.val.i, 1
  store i32 %56, ptr %0, align 4, !tbaa !4
  br label %lean_inc.exit

57:                                               ; preds = %53
  %.not.i43 = icmp eq i32 %.val.i, 0
  br i1 %.not.i43, label %lean_inc.exit, label %58

58:                                               ; preds = %57
  tail call void @lean_inc_ref_cold(ptr noundef nonnull %0) #7
  br label %lean_inc.exit

lean_inc.exit:                                    ; preds = %58, %57, %55, %lean_array_fget.exit42
  %59 = tail call ptr @lean_apply_3(ptr noundef %0, ptr noundef %.025, ptr noundef %34, ptr noundef %44) #7
  br i1 %.not, label %69, label %60, !prof !16

60:                                               ; preds = %lean_inc.exit
  %61 = add nuw i64 %32, 1
  %62 = icmp sgt i64 %61, -1
  br i1 %62, label %63, label %67, !prof !11

63:                                               ; preds = %60
  %64 = shl nuw i64 %61, 1
  %65 = or disjoint i64 %64, 1
  %66 = inttoptr i64 %65 to ptr
  br label %lean_dec.exit28.backedge

lean_dec.exit28.backedge:                         ; preds = %63, %67, %73, %75, %76
  %.023.be = phi ptr [ %66, %63 ], [ %68, %67 ], [ %70, %73 ], [ %70, %75 ], [ %70, %76 ]
  br label %lean_dec.exit28

67:                                               ; preds = %60
  %68 = tail call ptr @lean_big_usize_to_nat(i64 noundef %61) #7
  br label %lean_dec.exit28.backedge

69:                                               ; preds = %lean_inc.exit
  %70 = tail call ptr @lean_nat_big_add(ptr noundef %.023, ptr noundef nonnull inttoptr (i64 3 to ptr)) #7
  %71 = load i32, ptr %.023, align 4, !tbaa !4
  %72 = icmp sgt i32 %71, 1
  br i1 %72, label %73, label %75, !prof !11

73:                                               ; preds = %69
  %74 = add nsw i32 %71, -1
  store i32 %74, ptr %.023, align 4, !tbaa !4
  br label %lean_dec.exit28.backedge

75:                                               ; preds = %69
  %.not.i35 = icmp eq i32 %71, 0
  br i1 %.not.i35, label %lean_dec.exit28.backedge, label %76

76:                                               ; preds = %75
  tail call void @lean_dec_ref_cold(ptr noundef nonnull %.023) #7
  br label %lean_dec.exit28.backedge

77:                                               ; preds = %30, %29, %27, %lean_dec.exit29
  ret ptr %.025
}